target datalayout = "e-m:e-p270:32:32-p271:32:32-p272:64:64-i64:64-i128:128-f80:128-n8:16:32:64-S128"
target triple = "x86_64-pc-linux-gnu"

@hf_nfs4_stable_how = internal global i32 0, align 4
@hf_nfs4_length = internal global i32 0, align 4
@hf_nfs4_verifier = internal global i32 0, align 4
@hf_nfs4_callback_stateids = internal global i32 0, align 4
@hf_nfs4_callback_stateids_index = internal global i32 0, align 4
@ett_nfs4_callback_stateids_sub = internal global i32 0, align 4
@.str.2476 = private unnamed_addr constant [12 x i8] c"%s: %s (%u)\00", align 1
@.str.2477 = private unnamed_addr constant [3 x i8] c"%u\00", align 1
@.str.2499 = private unnamed_addr constant [10 x i8] c"committed\00", align 1

; Function Attrs: null_pointer_is_valid sspstrong uwtable
define internal i32 @dissect_nfs4_stable_how(ptr noundef %0, i32 noundef %1, ptr noundef %2, ptr noundef %3) #0 {
  %5 = alloca ptr, align 8
  %6 = alloca i32, align 4
  %7 = alloca ptr, align 8
  %8 = alloca ptr, align 8
  %9 = alloca i32, align 4
  store ptr %0, ptr %5, align 8
  store i32 %1, ptr %6, align 4
  store ptr %2, ptr %7, align 8
  store ptr %3, ptr %8, align 8
  call void @llvm.lifetime.start.p0(i64 4, ptr %9) #16
  %10 = load ptr, ptr %5, align 8
  %11 = load i32, ptr %6, align 4
  %12 = call i32 @tvb_get_ntohl(ptr noundef %10, i32 noundef %11)
  store i32 %12, ptr %9, align 4
  %13 = load ptr, ptr %7, align 8
  %14 = load i32, ptr @hf_nfs4_stable_how, align 4
  %15 = load ptr, ptr %5, align 8
  %16 = load i32, ptr %6, align 4
  %17 = add i32 %16, 0
  %18 = load i32, ptr %9, align 4
  %19 = load ptr, ptr %8, align 8
  %20 = load i32, ptr %9, align 4
  %21 = call ptr @val_to_str(i32 noundef %20, ptr noundef @names_stable_how4, ptr noundef @.str.2477)
  %22 = load i32, ptr %9, align 4
  %23 = call ptr (ptr, i32, ptr, i32, i32, i32, ptr, ...) @proto_tree_add_uint_format(ptr noundef %13, i32 noundef %14, ptr noundef %15, i32 noundef %17, i32 noundef 4, i32 noundef %18, ptr noundef @.str.2476, ptr noundef %19, ptr noundef %21, i32 noundef %22)
  %24 = load i32, ptr %6, align 4
  %25 = add i32 %24, 4
  store i32 %25, ptr %6, align 4
  %26 = load i32, ptr %6, align 4
  call void @llvm.lifetime.end.p0(i64 4, ptr %9) #16
  ret i32 %26
}

; Function Attrs: null_pointer_is_valid sspstrong uwtable
define internal i32 @dissect_nfs4_write_response(ptr noundef %0, i32 noundef %1, ptr noundef %2) #0 {
  %4 = alloca ptr, align 8
  %5 = alloca i32, align 4
  %6 = alloca ptr, align 8
  %7 = alloca ptr, align 8
  %8 = alloca ptr, align 8
  %9 = alloca ptr, align 8
  %10 = alloca ptr, align 8
  %11 = alloca i32, align 4
  %12 = alloca i32, align 4
  store ptr %0, ptr %4, align 8
  store i32 %1, ptr %5, align 4
  store ptr %2, ptr %6, align 8
  call void @llvm.lifetime.start.p0(i64 8, ptr %7) #16
  call void @llvm.lifetime.start.p0(i64 8, ptr %8) #16
  call void @llvm.lifetime.start.p0(i64 8, ptr %9) #16
  call void @llvm.lifetime.start.p0(i64 8, ptr %10) #16
  call void @llvm.lifetime.start.p0(i64 4, ptr %11) #16
  call void @llvm.lifetime.start.p0(i64 4, ptr %12) #16
  %13 = load ptr, ptr %6, align 8
  %14 = load i32, ptr @hf_nfs4_callback_stateids, align 4
  %15 = load ptr, ptr %4, align 8
  %16 = load i32, ptr %5, align 4
  %17 = call ptr @proto_tree_add_item_ret_uint(ptr noundef %13, i32 noundef %14, ptr noundef %15, i32 noundef %16, i32 noundef 4, i32 noundef 0, ptr noundef %12)
  store ptr %17, ptr %7, align 8
  %18 = load i32, ptr %5, align 4
  %19 = add i32 %18, 4
  store i32 %19, ptr %5, align 4
  %20 = load ptr, ptr %7, align 8
  %21 = load i32, ptr @ett_nfs4_callback_stateids_sub, align 4
  %22 = call ptr @proto_item_add_subtree(ptr noundef %20, i32 noundef %21)
  store ptr %22, ptr %9, align 8
  store i32 0, ptr %11, align 4
  br label %23

23:                                               ; preds = %41, %3
  %24 = load i32, ptr %11, align 4
  %25 = load i32, ptr %12, align 4
  %26 = icmp ult i32 %24, %25
  br i1 %26, label %27, label %44

27:                                               ; preds = %23
  %28 = load ptr, ptr %9, align 8
  %29 = load i32, ptr @hf_nfs4_callback_stateids_index, align 4
  %30 = load ptr, ptr %4, align 8
  %31 = load i32, ptr %5, align 4
  %32 = load i32, ptr %11, align 4
  %33 = call ptr @proto_tree_add_uint(ptr noundef %28, i32 noundef %29, ptr noundef %30, i32 noundef %31, i32 noundef 4, i32 noundef %32)
  store ptr %33, ptr %10, align 8
  %34 = load ptr, ptr %10, align 8
  %35 = load i32, ptr @ett_nfs4_callback_stateids_sub, align 4
  %36 = call ptr @proto_item_add_subtree(ptr noundef %34, i32 noundef %35)
  store ptr %36, ptr %8, align 8
  %37 = load ptr, ptr %4, align 8
  %38 = load i32, ptr %5, align 4
  %39 = load ptr, ptr %8, align 8
  %40 = call i32 @dissect_nfs4_stateid(ptr noundef %37, i32 noundef %38, ptr noundef %39, ptr noundef null)
  store i32 %40, ptr %5, align 4
  br label %41

41:                                               ; preds = %27
  %42 = load i32, ptr %11, align 4
  %43 = add i32 %42, 1
  store i32 %43, ptr %11, align 4
  br label %23, !llvm.loop !45

44:                                               ; preds = %23
  %45 = load ptr, ptr %4, align 8
  %46 = load ptr, ptr %6, align 8
  %47 = load i32, ptr @hf_nfs4_length, align 4
  %48 = load i32, ptr %5, align 4
  %49 = call i32 @dissect_rpc_uint64(ptr noundef %45, ptr noundef %46, i32 noundef %47, i32 noundef %48)
  store i32 %49, ptr %5, align 4
  %50 = load ptr, ptr %4, align 8
  %51 = load i32, ptr %5, align 4
  %52 = load ptr, ptr %6, align 8
  %53 = call i32 @dissect_nfs4_stable_how(ptr noundef %50, i32 noundef %51, ptr noundef %52, ptr noundef @.str.2499)
  store i32 %53, ptr %5, align 4
  %54 = load ptr, ptr %4, align 8
  %55 = load ptr, ptr %6, align 8
  %56 = load i32, ptr @hf_nfs4_verifier, align 4
  %57 = load i32, ptr %5, align 4
  %58 = call i32 @dissect_rpc_uint64(ptr noundef %54, ptr noundef %55, i32 noundef %56, i32 noundef %57)
  store i32 %58, ptr %5, align 4
  %59 = load i32, ptr %5, align 4
  call void @llvm.lifetime.end.p0(i64 4, ptr %12) #16
  call void @llvm.lifetime.end.p0(i64 4, ptr %11) #16
  call void @llvm.lifetime.end.p0(i64 8, ptr %10) #16
  call void @llvm.lifetime.end.p0(i64 8, ptr %9) #16
  call void @llvm.lifetime.end.p0(i64 8, ptr %8) #16
  call void @llvm.lifetime.end.p0(i64 8, ptr %7) #16
  ret i32 %59
}