; Function Attrs: null_pointer_is_valid sspstrong uwtable
define internal fastcc i32 @dissect_nfs4_write_response(ptr noundef %0, i32 noundef %1, ptr noundef %2) unnamed_addr #0 {
  %4 = alloca i32, align 4
  call void @llvm.lifetime.start.p0(i64 4, ptr nonnull %4) #22
  %5 = load i32, ptr @hf_nfs4_callback_stateids, align 4
  %6 = call ptr @proto_tree_add_item_ret_uint(ptr noundef %2, i32 noundef %5, ptr noundef %0, i32 noundef %1, i32 noundef 4, i32 noundef 0, ptr noundef nonnull %4)
  %7 = add i32 %1, 4
  %8 = load i32, ptr @ett_nfs4_callback_stateids_sub, align 4
  %9 = call ptr @proto_item_add_subtree(ptr noundef %6, i32 noundef %8)
  %10 = load i32, ptr %4, align 4
  %.not = icmp eq i32 %10, 0
  br i1 %.not, label %._crit_edge, label %.lr.ph

.lr.ph:                                           ; preds = %3, %.lr.ph
  %.026 = phi i32 [ %16, %.lr.ph ], [ 0, %3 ]
  %.02425 = phi i32 [ %15, %.lr.ph ], [ %7, %3 ]
  %11 = load i32, ptr @hf_nfs4_callback_stateids_index, align 4
  %12 = call ptr @proto_tree_add_uint(ptr noundef %9, i32 noundef %11, ptr noundef %0, i32 noundef %.02425, i32 noundef 4, i32 noundef %.026)
  %13 = load i32, ptr @ett_nfs4_callback_stateids_sub, align 4
  %14 = call ptr @proto_item_add_subtree(ptr noundef %12, i32 noundef %13)
  %15 = call fastcc i32 @dissect_nfs4_stateid(ptr noundef %0, i32 noundef %.02425, ptr noundef %14, ptr noundef null)
  %16 = add nuw i32 %.026, 1
  %17 = load i32, ptr %4, align 4
  %18 = icmp ult i32 %16, %17
  br i1 %18, label %.lr.ph, label %._crit_edge, !llvm.loop !58

._crit_edge:                                      ; preds = %.lr.ph, %3
  %.024.lcssa = phi i32 [ %7, %3 ], [ %15, %.lr.ph ]
  %19 = load i32, ptr @hf_nfs4_length, align 4
  %20 = call i32 @dissect_rpc_uint64(ptr noundef %0, ptr noundef %2, i32 noundef %19, i32 noundef %.024.lcssa)
  %21 = call i32 @tvb_get_ntohl(ptr noundef %0, i32 noundef %20)
  %22 = load i32, ptr @hf_nfs4_stable_how, align 4
  %23 = call ptr @val_to_str(i32 noundef %21, ptr noundef nonnull @names_stable_how4, ptr noundef nonnull @.str.2477)
  %24 = call ptr (ptr, i32, ptr, i32, i32, i32, ptr, ...) @proto_tree_add_uint_format(ptr noundef %2, i32 noundef %22, ptr noundef %0, i32 noundef %20, i32 noundef 4, i32 noundef %21, ptr noundef nonnull @.str.2476, ptr noundef nonnull @.str.2499, ptr noundef %23, i32 noundef %21)
  %25 = add i32 %20, 4
  %26 = load i32, ptr @hf_nfs4_verifier, align 4
  %27 = call i32 @dissect_rpc_uint64(ptr noundef %0, ptr noundef %2, i32 noundef %26, i32 noundef %25)
  call void @llvm.lifetime.end.p0(i64 4, ptr nonnull %4) #22
  ret i32 %27
}